; ModuleID = '21/1174.c'
source_filename = "21/1174.c"
target datalayout = "e-m:e-p270:32:32-p271:32:32-p272:64:64-i64:64-f80:128-n8:16:32:64-S128"
target triple = "x86_64-pc-linux-gnu"

@.str = private unnamed_addr constant [3 x i8] c"%d\00", align 1
@.str.1 = private unnamed_addr constant [4 x i8] c",%d\00", align 1

; Function Attrs: noinline nounwind uwtable
define dso_local i32 @main() #0 {
  %1 = alloca i32, align 4
  %2 = alloca i32, align 4
  %3 = alloca [300 x i32], align 16
  %4 = alloca i32, align 4
  %5 = alloca i32, align 4
  %6 = alloca i32, align 4
  %7 = alloca i32, align 4
  %8 = alloca double, align 8
  %9 = alloca double, align 8
  %10 = alloca [300 x i32], align 16
  %11 = alloca i32, align 4
  store i32 0, i32* %1, align 4
  %12 = bitcast [300 x i32]* %3 to i8*
  call void @llvm.memset.p0i8.i64(i8* align 16 %12, i8 0, i64 1200, i1 false)
  store double 0.000000e+00, double* %8, align 8
  store double 0.000000e+00, double* %9, align 8
  %13 = bitcast [300 x i32]* %10 to i8*
  call void @llvm.memset.p0i8.i64(i8* align 16 %13, i8 0, i64 1200, i1 false)
  store i32 0, i32* %11, align 4
  %14 = call i32 (i8*, ...) @__isoc99_scanf(i8* getelementptr inbounds ([3 x i8], [3 x i8]* @.str, i64 0, i64 0), i32* %2)
  store i32 0, i32* %4, align 4
  br label %15

15:                                               ; preds = %31, %0
  %16 = load i32, i32* %4, align 4
  %17 = load i32, i32* %2, align 4
  %18 = icmp slt i32 %16, %17
  br i1 %18, label %19, label %34

19:                                               ; preds = %15
  %20 = load i32, i32* %4, align 4
  %21 = sext i32 %20 to i64
  %22 = getelementptr inbounds [300 x i32], [300 x i32]* %3, i64 0, i64 %21
  %23 = call i32 (i8*, ...) @__isoc99_scanf(i8* getelementptr inbounds ([3 x i8], [3 x i8]* @.str, i64 0, i64 0), i32* %22)
  %24 = load double, double* %8, align 8
  %25 = load i32, i32* %4, align 4
  %26 = sext i32 %25 to i64
  %27 = getelementptr inbounds [300 x i32], [300 x i32]* %3, i64 0, i64 %26
  %28 = load i32, i32* %27, align 4
  %29 = sitofp i32 %28 to double
  %30 = fadd double %24, %29
  store double %30, double* %8, align 8
  br label %31

31:                                               ; preds = %19
  %32 = load i32, i32* %4, align 4
  %33 = add nsw i32 %32, 1
  store i32 %33, i32* %4, align 4
  br label %15

34:                                               ; preds = %15
  %35 = load double, double* %8, align 8
  %36 = load i32, i32* %2, align 4
  %37 = sitofp i32 %36 to double
  %38 = fdiv double %35, %37
  store double %38, double* %8, align 8
  store i32 0, i32* %5, align 4
  %39 = getelementptr inbounds [300 x i32], [300 x i32]* %3, i64 0, i64 0
  %40 = load i32, i32* %39, align 16
  %41 = sitofp i32 %40 to double
  %42 = load double, double* %8, align 8
  %43 = fsub double %41, %42
  %44 = call double @llvm.fabs.f64(double %43)
  store double %44, double* %9, align 8
  store i32 0, i32* %4, align 4
  br label %45

45:                                               ; preds = %70, %34
  %46 = load i32, i32* %4, align 4
  %47 = load i32, i32* %2, align 4
  %48 = icmp slt i32 %46, %47
  br i1 %48, label %49, label %73

49:                                               ; preds = %45
  %50 = load double, double* %9, align 8
  %51 = load i32, i32* %4, align 4
  %52 = sext i32 %51 to i64
  %53 = getelementptr inbounds [300 x i32], [300 x i32]* %3, i64 0, i64 %52
  %54 = load i32, i32* %53, align 4
  %55 = sitofp i32 %54 to double
  %56 = load double, double* %8, align 8
  %57 = fsub double %55, %56
  %58 = call double @llvm.fabs.f64(double %57)
  %59 = fcmp olt double %50, %58
  br i1 %59, label %60, label %69

60:                                               ; preds = %49
  %61 = load i32, i32* %4, align 4
  %62 = sext i32 %61 to i64
  %63 = getelementptr inbounds [300 x i32], [300 x i32]* %3, i64 0, i64 %62
  %64 = load i32, i32* %63, align 4
  %65 = sitofp i32 %64 to double
  %66 = load double, double* %8, align 8
  %67 = fsub double %65, %66
  %68 = call double @llvm.fabs.f64(double %67)
  store double %68, double* %9, align 8
  br label %69

69:                                               ; preds = %60, %49
  br label %70

70:                                               ; preds = %69
  %71 = load i32, i32* %4, align 4
  %72 = add nsw i32 %71, 1
  store i32 %72, i32* %4, align 4
  br label %45

73:                                               ; preds = %45
  store i32 0, i32* %4, align 4
  br label %74

74:                                               ; preds = %102, %73
  %75 = load i32, i32* %4, align 4
  %76 = load i32, i32* %2, align 4
  %77 = icmp slt i32 %75, %76
  br i1 %77, label %78, label %105

78:                                               ; preds = %74
  %79 = load i32, i32* %4, align 4
  %80 = sext i32 %79 to i64
  %81 = getelementptr inbounds [300 x i32], [300 x i32]* %3, i64 0, i64 %80
  %82 = load i32, i32* %81, align 4
  %83 = sitofp i32 %82 to double
  %84 = load double, double* %8, align 8
  %85 = fsub double %83, %84
  %86 = call double @llvm.fabs.f64(double %85)
  %87 = load double, double* %9, align 8
  %88 = fsub double %86, %87
  %89 = call double @llvm.fabs.f64(double %88)
  %90 = fcmp olt double %89, 1.000000e-09
  br i1 %90, label %91, label %101

91:                                               ; preds = %78
  %92 = load i32, i32* %4, align 4
  %93 = sext i32 %92 to i64
  %94 = getelementptr inbounds [300 x i32], [300 x i32]* %3, i64 0, i64 %93
  %95 = load i32, i32* %94, align 4
  %96 = load i32, i32* %5, align 4
  %97 = sext i32 %96 to i64
  %98 = getelementptr inbounds [300 x i32], [300 x i32]* %10, i64 0, i64 %97
  store i32 %95, i32* %98, align 4
  %99 = load i32, i32* %5, align 4
  %100 = add nsw i32 %99, 1
  store i32 %100, i32* %5, align 4
  br label %101

101:                                              ; preds = %91, %78
  br label %102

102:                                              ; preds = %101
  %103 = load i32, i32* %4, align 4
  %104 = add nsw i32 %103, 1
  store i32 %104, i32* %4, align 4
  br label %74

105:                                              ; preds = %74
  %106 = load i32, i32* %5, align 4
  %107 = sub nsw i32 %106, 2
  store i32 %107, i32* %6, align 4
  br label %108

108:                                              ; preds = %150, %105
  %109 = load i32, i32* %6, align 4
  %110 = icmp sgt i32 %109, 0
  br i1 %110, label %111, label %153

111:                                              ; preds = %108
  store i32 0, i32* %7, align 4
  br label %112

112:                                              ; preds = %146, %111
  %113 = load i32, i32* %7, align 4
  %114 = load i32, i32* %6, align 4
  %115 = icmp slt i32 %113, %114
  br i1 %115, label %116, label %149

116:                                              ; preds = %112
  %117 = load i32, i32* %7, align 4
  %118 = sext i32 %117 to i64
  %119 = getelementptr inbounds [300 x i32], [300 x i32]* %10, i64 0, i64 %118
  %120 = load i32, i32* %119, align 4
  %121 = load i32, i32* %7, align 4
  %122 = add nsw i32 %121, 1
  %123 = sext i32 %122 to i64
  %124 = getelementptr inbounds [300 x i32], [300 x i32]* %10, i64 0, i64 %123
  %125 = load i32, i32* %124, align 4
  %126 = icmp sgt i32 %120, %125
  br i1 %126, label %127, label %145

127:                                              ; preds = %116
  %128 = load i32, i32* %7, align 4
  %129 = sext i32 %128 to i64
  %130 = getelementptr inbounds [300 x i32], [300 x i32]* %10, i64 0, i64 %129
  %131 = load i32, i32* %130, align 4
  store i32 %131, i32* %11, align 4
  %132 = load i32, i32* %7, align 4
  %133 = add nsw i32 %132, 1
  %134 = sext i32 %133 to i64
  %135 = getelementptr inbounds [300 x i32], [300 x i32]* %10, i64 0, i64 %134
  %136 = load i32, i32* %135, align 4
  %137 = load i32, i32* %7, align 4
  %138 = sext i32 %137 to i64
  %139 = getelementptr inbounds [300 x i32], [300 x i32]* %10, i64 0, i64 %138
  store i32 %136, i32* %139, align 4
  %140 = load i32, i32* %11, align 4
  %141 = load i32, i32* %7, align 4
  %142 = add nsw i32 %141, 1
  %143 = sext i32 %142 to i64
  %144 = getelementptr inbounds [300 x i32], [300 x i32]* %10, i64 0, i64 %143
  store i32 %140, i32* %144, align 4
  br label %145

145:                                              ; preds = %127, %116
  br label %146

146:                                              ; preds = %145
  %147 = load i32, i32* %7, align 4
  %148 = add nsw i32 %147, 1
  store i32 %148, i32* %7, align 4
  br label %112

149:                                              ; preds = %112
  br label %150

150:                                              ; preds = %149
  %151 = load i32, i32* %6, align 4
  %152 = add nsw i32 %151, -1
  store i32 %152, i32* %6, align 4
  br label %108

153:                                              ; preds = %108
  %154 = getelementptr inbounds [300 x i32], [300 x i32]* %10, i64 0, i64 0
  %155 = load i32, i32* %154, align 16
  %156 = call i32 (i8*, ...) @printf(i8* getelementptr inbounds ([3 x i8], [3 x i8]* @.str, i64 0, i64 0), i32 %155)
  store i32 1, i32* %6, align 4
  br label %157

157:                                              ; preds = %167, %153
  %158 = load i32, i32* %6, align 4
  %159 = load i32, i32* %5, align 4
  %160 = icmp slt i32 %158, %159
  br i1 %160, label %161, label %170

161:                                              ; preds = %157
  %162 = load i32, i32* %6, align 4
  %163 = sext i32 %162 to i64
  %164 = getelementptr inbounds [300 x i32], [300 x i32]* %10, i64 0, i64 %163
  %165 = load i32, i32* %164, align 4
  %166 = call i32 (i8*, ...) @printf(i8* getelementptr inbounds ([4 x i8], [4 x i8]* @.str.1, i64 0, i64 0), i32 %165)
  br label %167

167:                                              ; preds = %161
  %168 = load i32, i32* %6, align 4
  %169 = add nsw i32 %168, 1
  store i32 %169, i32* %6, align 4
  br label %157

170:                                              ; preds = %157
  ret i32 0
}

; Function Attrs: argmemonly nounwind willreturn
declare void @llvm.memset.p0i8.i64(i8* nocapture writeonly, i8, i64, i1 immarg) #1

declare dso_local i32 @__isoc99_scanf(i8*, ...) #2

; Function Attrs: nounwind readnone speculatable willreturn
declare double @llvm.fabs.f64(double) #3

declare dso_local i32 @printf(i8*, ...) #2


!llvm.module.flags = !{!0}
!llvm.ident = !{!1}

!0 = !{i32 1, !"wchar_size", i32 4}
!1 = !{!"clang version 10.0.0-4ubuntu1 "}
